; ModuleID = '21/1879.c'
source_filename = "21/1879.c"
target datalayout = "e-m:e-p270:32:32-p271:32:32-p272:64:64-i64:64-f80:128-n8:16:32:64-S128"
target triple = "x86_64-pc-linux-gnu"

@.str = private unnamed_addr constant [3 x i8] c"%d\00", align 1
@.str.1 = private unnamed_addr constant [6 x i8] c"%d,%d\00", align 1

; Function Attrs: noinline nounwind uwtable
define dso_local void @main() #0 {
  %1 = alloca i32, align 4
  %2 = alloca i32, align 4
  %3 = alloca i32, align 4
  %4 = alloca i32, align 4
  %5 = alloca i32, align 4
  %6 = alloca [300 x i32], align 16
  %7 = alloca float, align 4
  %8 = alloca [300 x float], align 16
  %9 = alloca [300 x float], align 16
  %10 = alloca float, align 4
  %11 = alloca float, align 4
  store i32 0, i32* %5, align 4
  %12 = call i32 (i8*, ...) @__isoc99_scanf(i8* getelementptr inbounds ([3 x i8], [3 x i8]* @.str, i64 0, i64 0), i32* %1)
  store i32 0, i32* %2, align 4
  br label %13

13:                                               ; preds = %22, %0
  %14 = load i32, i32* %2, align 4
  %15 = load i32, i32* %1, align 4
  %16 = icmp slt i32 %14, %15
  br i1 %16, label %17, label %25

17:                                               ; preds = %13
  %18 = load i32, i32* %2, align 4
  %19 = sext i32 %18 to i64
  %20 = getelementptr inbounds [300 x i32], [300 x i32]* %6, i64 0, i64 %19
  %21 = call i32 (i8*, ...) @__isoc99_scanf(i8* getelementptr inbounds ([3 x i8], [3 x i8]* @.str, i64 0, i64 0), i32* %20)
  br label %22

22:                                               ; preds = %17
  %23 = load i32, i32* %2, align 4
  %24 = add nsw i32 %23, 1
  store i32 %24, i32* %2, align 4
  br label %13

25:                                               ; preds = %13
  %26 = bitcast [300 x float]* %8 to i8*
  call void @llvm.memset.p0i8.i64(i8* align 16 %26, i8 0, i64 1200, i1 false)
  %27 = bitcast [300 x float]* %9 to i8*
  call void @llvm.memset.p0i8.i64(i8* align 16 %27, i8 0, i64 1200, i1 false)
  store i32 0, i32* %2, align 4
  br label %28

28:                                               ; preds = %39, %25
  %29 = load i32, i32* %2, align 4
  %30 = load i32, i32* %1, align 4
  %31 = icmp slt i32 %29, %30
  br i1 %31, label %32, label %42

32:                                               ; preds = %28
  %33 = load i32, i32* %5, align 4
  %34 = load i32, i32* %2, align 4
  %35 = sext i32 %34 to i64
  %36 = getelementptr inbounds [300 x i32], [300 x i32]* %6, i64 0, i64 %35
  %37 = load i32, i32* %36, align 4
  %38 = add nsw i32 %33, %37
  store i32 %38, i32* %5, align 4
  br label %39

39:                                               ; preds = %32
  %40 = load i32, i32* %2, align 4
  %41 = add nsw i32 %40, 1
  store i32 %41, i32* %2, align 4
  br label %28

42:                                               ; preds = %28
  %43 = load i32, i32* %5, align 4
  %44 = sitofp i32 %43 to float
  %45 = load i32, i32* %1, align 4
  %46 = sitofp i32 %45 to float
  %47 = fdiv float %44, %46
  store float %47, float* %7, align 4
  store i32 0, i32* %2, align 4
  br label %48

48:                                               ; preds = %83, %42
  %49 = load i32, i32* %2, align 4
  %50 = load i32, i32* %1, align 4
  %51 = icmp slt i32 %49, %50
  br i1 %51, label %52, label %86

52:                                               ; preds = %48
  %53 = load i32, i32* %2, align 4
  %54 = sext i32 %53 to i64
  %55 = getelementptr inbounds [300 x i32], [300 x i32]* %6, i64 0, i64 %54
  %56 = load i32, i32* %55, align 4
  %57 = sitofp i32 %56 to float
  %58 = load float, float* %7, align 4
  %59 = fcmp oge float %57, %58
  br i1 %59, label %60, label %71

60:                                               ; preds = %52
  %61 = load i32, i32* %2, align 4
  %62 = sext i32 %61 to i64
  %63 = getelementptr inbounds [300 x i32], [300 x i32]* %6, i64 0, i64 %62
  %64 = load i32, i32* %63, align 4
  %65 = sitofp i32 %64 to float
  %66 = load float, float* %7, align 4
  %67 = fsub float %65, %66
  %68 = load i32, i32* %2, align 4
  %69 = sext i32 %68 to i64
  %70 = getelementptr inbounds [300 x float], [300 x float]* %8, i64 0, i64 %69
  store float %67, float* %70, align 4
  br label %82

71:                                               ; preds = %52
  %72 = load float, float* %7, align 4
  %73 = load i32, i32* %2, align 4
  %74 = sext i32 %73 to i64
  %75 = getelementptr inbounds [300 x i32], [300 x i32]* %6, i64 0, i64 %74
  %76 = load i32, i32* %75, align 4
  %77 = sitofp i32 %76 to float
  %78 = fsub float %72, %77
  %79 = load i32, i32* %2, align 4
  %80 = sext i32 %79 to i64
  %81 = getelementptr inbounds [300 x float], [300 x float]* %9, i64 0, i64 %80
  store float %78, float* %81, align 4
  br label %82

82:                                               ; preds = %71, %60
  br label %83

83:                                               ; preds = %82
  %84 = load i32, i32* %2, align 4
  %85 = add nsw i32 %84, 1
  store i32 %85, i32* %2, align 4
  br label %48

86:                                               ; preds = %48
  store float 0.000000e+00, float* %10, align 4
  store float 0.000000e+00, float* %11, align 4
  store i32 0, i32* %2, align 4
  br label %87

87:                                               ; preds = %118, %86
  %88 = load i32, i32* %2, align 4
  %89 = load i32, i32* %1, align 4
  %90 = icmp slt i32 %88, %89
  br i1 %90, label %91, label %121

91:                                               ; preds = %87
  %92 = load i32, i32* %2, align 4
  %93 = sext i32 %92 to i64
  %94 = getelementptr inbounds [300 x float], [300 x float]* %8, i64 0, i64 %93
  %95 = load float, float* %94, align 4
  %96 = load float, float* %10, align 4
  %97 = fcmp ogt float %95, %96
  br i1 %97, label %98, label %104

98:                                               ; preds = %91
  %99 = load i32, i32* %2, align 4
  %100 = sext i32 %99 to i64
  %101 = getelementptr inbounds [300 x float], [300 x float]* %8, i64 0, i64 %100
  %102 = load float, float* %101, align 4
  store float %102, float* %10, align 4
  %103 = load i32, i32* %2, align 4
  store i32 %103, i32* %3, align 4
  br label %104

104:                                              ; preds = %98, %91
  %105 = load i32, i32* %2, align 4
  %106 = sext i32 %105 to i64
  %107 = getelementptr inbounds [300 x float], [300 x float]* %9, i64 0, i64 %106
  %108 = load float, float* %107, align 4
  %109 = load float, float* %11, align 4
  %110 = fcmp ogt float %108, %109
  br i1 %110, label %111, label %117

111:                                              ; preds = %104
  %112 = load i32, i32* %2, align 4
  %113 = sext i32 %112 to i64
  %114 = getelementptr inbounds [300 x float], [300 x float]* %9, i64 0, i64 %113
  %115 = load float, float* %114, align 4
  store float %115, float* %11, align 4
  %116 = load i32, i32* %2, align 4
  store i32 %116, i32* %4, align 4
  br label %117

117:                                              ; preds = %111, %104
  br label %118

118:                                              ; preds = %117
  %119 = load i32, i32* %2, align 4
  %120 = add nsw i32 %119, 1
  store i32 %120, i32* %2, align 4
  br label %87

121:                                              ; preds = %87
  %122 = load float, float* %10, align 4
  %123 = load float, float* %11, align 4
  %124 = fcmp oeq float %122, %123
  br i1 %124, label %125, label %135

125:                                              ; preds = %121
  %126 = load i32, i32* %4, align 4
  %127 = sext i32 %126 to i64
  %128 = getelementptr inbounds [300 x i32], [300 x i32]* %6, i64 0, i64 %127
  %129 = load i32, i32* %128, align 4
  %130 = load i32, i32* %3, align 4
  %131 = sext i32 %130 to i64
  %132 = getelementptr inbounds [300 x i32], [300 x i32]* %6, i64 0, i64 %131
  %133 = load i32, i32* %132, align 4
  %134 = call i32 (i8*, ...) @printf(i8* getelementptr inbounds ([6 x i8], [6 x i8]* @.str.1, i64 0, i64 0), i32 %129, i32 %133)
  br label %157

135:                                              ; preds = %121
  %136 = load float, float* %10, align 4
  %137 = load float, float* %11, align 4
  %138 = fcmp ogt float %136, %137
  br i1 %138, label %139, label %145

139:                                              ; preds = %135
  %140 = load i32, i32* %3, align 4
  %141 = sext i32 %140 to i64
  %142 = getelementptr inbounds [300 x i32], [300 x i32]* %6, i64 0, i64 %141
  %143 = load i32, i32* %142, align 4
  %144 = call i32 (i8*, ...) @printf(i8* getelementptr inbounds ([3 x i8], [3 x i8]* @.str, i64 0, i64 0), i32 %143)
  br label %156

145:                                              ; preds = %135
  %146 = load float, float* %11, align 4
  %147 = load float, float* %10, align 4
  %148 = fcmp ogt float %146, %147
  br i1 %148, label %149, label %155

149:                                              ; preds = %145
  %150 = load i32, i32* %4, align 4
  %151 = sext i32 %150 to i64
  %152 = getelementptr inbounds [300 x i32], [300 x i32]* %6, i64 0, i64 %151
  %153 = load i32, i32* %152, align 4
  %154 = call i32 (i8*, ...) @printf(i8* getelementptr inbounds ([3 x i8], [3 x i8]* @.str, i64 0, i64 0), i32 %153)
  br label %155

155:                                              ; preds = %149, %145
  br label %156

156:                                              ; preds = %155, %139
  br label %157

157:                                              ; preds = %156, %125
  ret void
}

declare dso_local i32 @__isoc99_scanf(i8*, ...) #1

; Function Attrs: argmemonly nounwind willreturn
declare void @llvm.memset.p0i8.i64(i8* nocapture writeonly, i8, i64, i1 immarg) #2

declare dso_local i32 @printf(i8*, ...) #1


!llvm.module.flags = !{!0}
!llvm.ident = !{!1}

!0 = !{i32 1, !"wchar_size", i32 4}
!1 = !{!"clang version 10.0.0-4ubuntu1 "}
